; Function Attrs: mustprogress nofree norecurse nosync nounwind willreturn memory(read, inaccessiblemem: none) uwtable
define hidden noundef zeroext i1 @_ZNK3sls10euf_plugin19include_func_interpEP9func_decl(ptr nonnull readnone align 8 captures(none) %0, ptr noundef readonly captures(none) %1) unnamed_addr #12 align 2 {
  %3 = getelementptr inbounds nuw i8, ptr %1, i64 24
  %4 = load ptr, ptr %3, align 8, !tbaa !183
  %5 = icmp eq ptr %4, null
  br i1 %5, label %_Z11is_uninterpPK9func_decl.exit.thread, label %_Z11is_uninterpPK9func_decl.exit

_Z11is_uninterpPK9func_decl.exit:                 ; preds = %2
  %6 = load i32, ptr %4, align 8, !tbaa !186
  %7 = icmp eq i32 %6, -1
  br i1 %7, label %_Z11is_uninterpPK9func_decl.exit.thread, label %11

_Z11is_uninterpPK9func_decl.exit.thread:          ; preds = %2, %_Z11is_uninterpPK9func_decl.exit
  %8 = getelementptr inbounds nuw i8, ptr %1, i64 32
  %9 = load i32, ptr %8, align 8, !tbaa !315
  %10 = icmp ne i32 %9, 0
  br label %11

11:                                               ; preds = %_Z11is_uninterpPK9func_decl.exit.thread, %_Z11is_uninterpPK9func_decl.exit
  %12 = phi i1 [ false, %_Z11is_uninterpPK9func_decl.exit ], [ %10, %_Z11is_uninterpPK9func_decl.exit.thread ]
  ret i1 %12
}